; Function Attrs: mustprogress nounwind uwtable
define hidden void @_ZN16DefNewGeneration11gc_epilogueEb(ptr noundef nonnull align 8 dereferenceable(744) %0, i1 noundef zeroext %1) local_unnamed_addr #0 align 2 {
  %3 = load ptr, ptr %0, align 8
  %4 = getelementptr inbounds i8, ptr %3, i64 96
  %5 = load ptr, ptr %4, align 8
  tail call void %5(ptr noundef nonnull align 8 dereferenceable(744) %0) #19
  %6 = tail call noundef ptr @_ZN10SerialHeap4heapEv() #19
  %7 = getelementptr inbounds i8, ptr %6, i64 144
  %8 = load ptr, ptr %7, align 8
  %9 = load ptr, ptr %8, align 8
  %10 = load ptr, ptr %9, align 8
  tail call void %10(ptr noundef nonnull align 8 dereferenceable(40) %8) #19
  ret void
}